target datalayout = "e-m:e-p270:32:32-p271:32:32-p272:64:64-i64:64-i128:128-f80:128-n8:16:32:64-S128"
target triple = "x86_64-pc-linux-gnu"

%struct.AVFilterContext = type { ptr, ptr, ptr, ptr, ptr, i32, ptr, ptr, i32, ptr, ptr, i32, i32, ptr, ptr, ptr, ptr, i32, ptr, i32, i32 }
%struct.ShowSpectrumContext = type { ptr, i32, i32, ptr, %struct.AVRational, %struct.AVRational, ptr, ptr, i32, i32, i32, i32, i32, i32, i32, i32, i32, float, float, i32, i32, i32, i32, ptr, ptr, ptr, ptr, i32, ptr, ptr, ptr, ptr, ptr, ptr, i32, i32, i32, double, float, float, i32, ptr, ptr, i64, i64, i64, i32, i32, i32, i32, i32, float, float, float, float, i64, ptr, i32, float, ptr, i32, i32 }
%struct.AVRational = type { i32, i32 }
%struct.AVComplexFloat = type { float, float }

; Function Attrs: nounwind uwtable
define internal i32 @calc_channel_magnitudes(ptr noundef %0, ptr noundef %1, i32 noundef %2, i32 noundef %3) #1 {
  %5 = alloca ptr, align 8
  %6 = alloca ptr, align 8
  %7 = alloca i32, align 4
  %8 = alloca i32, align 4
  %9 = alloca ptr, align 8
  %10 = alloca double, align 8
  %11 = alloca i32, align 4
  %12 = alloca i32, align 4
  %13 = alloca float, align 4
  %14 = alloca i32, align 4
  %15 = alloca ptr, align 8
  store ptr %0, ptr %5, align 8, !tbaa !4
  store ptr %1, ptr %6, align 8, !tbaa !145
  store i32 %2, ptr %7, align 4, !tbaa !36
  store i32 %3, ptr %8, align 4, !tbaa !36
  call void @llvm.lifetime.start.p0(i64 8, ptr %9) #13
  %16 = load ptr, ptr %5, align 8, !tbaa !4
  %17 = getelementptr inbounds nuw %struct.AVFilterContext, ptr %16, i32 0, i32 9
  %18 = load ptr, ptr %17, align 8, !tbaa !9
  store ptr %18, ptr %9, align 8, !tbaa !22
  call void @llvm.lifetime.start.p0(i64 8, ptr %10) #13
  %19 = load ptr, ptr %9, align 8, !tbaa !22
  %20 = getelementptr inbounds nuw %struct.ShowSpectrumContext, ptr %19, i32 0, i32 37
  %21 = load double, ptr %20, align 8, !tbaa !138
  %22 = load ptr, ptr %9, align 8, !tbaa !22
  %23 = getelementptr inbounds nuw %struct.ShowSpectrumContext, ptr %22, i32 0, i32 15
  %24 = load i32, ptr %23, align 4, !tbaa !196
  %25 = icmp eq i32 %24, 3
  br i1 %25, label %26, label %30

26:                                               ; preds = %4
  %27 = load ptr, ptr %9, align 8, !tbaa !22
  %28 = getelementptr inbounds nuw %struct.ShowSpectrumContext, ptr %27, i32 0, i32 37
  %29 = load double, ptr %28, align 8, !tbaa !138
  br label %31

30:                                               ; preds = %4
  br label %31

31:                                               ; preds = %30, %26
  %32 = phi nsz double [ %29, %26 ], [ 1.000000e+00, %30 ]
  %33 = fmul nsz double %21, %32
  store double %33, ptr %10, align 8, !tbaa !163
  call void @llvm.lifetime.start.p0(i64 4, ptr %11) #13
  call void @llvm.lifetime.start.p0(i64 4, ptr %12) #13
  %34 = load ptr, ptr %9, align 8, !tbaa !22
  %35 = getelementptr inbounds nuw %struct.ShowSpectrumContext, ptr %34, i32 0, i32 9
  %36 = load i32, ptr %35, align 4, !tbaa !82
  %37 = icmp eq i32 %36, 0
  br i1 %37, label %38, label %42

38:                                               ; preds = %31
  %39 = load ptr, ptr %9, align 8, !tbaa !22
  %40 = getelementptr inbounds nuw %struct.ShowSpectrumContext, ptr %39, i32 0, i32 2
  %41 = load i32, ptr %40, align 4, !tbaa !111
  br label %46

42:                                               ; preds = %31
  %43 = load ptr, ptr %9, align 8, !tbaa !22
  %44 = getelementptr inbounds nuw %struct.ShowSpectrumContext, ptr %43, i32 0, i32 1
  %45 = load i32, ptr %44, align 8, !tbaa !110
  br label %46

46:                                               ; preds = %42, %38
  %47 = phi i32 [ %41, %38 ], [ %45, %42 ]
  store i32 %47, ptr %12, align 4, !tbaa !36
  call void @llvm.lifetime.start.p0(i64 4, ptr %13) #13
  %48 = load ptr, ptr %9, align 8, !tbaa !22
  %49 = getelementptr inbounds nuw %struct.ShowSpectrumContext, ptr %48, i32 0, i32 39
  %50 = load float, ptr %49, align 4, !tbaa !238
  %51 = fpext nsz float %50 to double
  %52 = load double, ptr %10, align 8, !tbaa !163
  %53 = fmul nsz double %51, %52
  %54 = fptrunc nsz double %53 to float
  store float %54, ptr %13, align 4, !tbaa !126
  call void @llvm.lifetime.start.p0(i64 4, ptr %14) #13
  %55 = load i32, ptr %7, align 4, !tbaa !36
  store i32 %55, ptr %14, align 4, !tbaa !36
  call void @llvm.lifetime.start.p0(i64 8, ptr %15) #13
  %56 = load ptr, ptr %9, align 8, !tbaa !22
  %57 = getelementptr inbounds nuw %struct.ShowSpectrumContext, ptr %56, i32 0, i32 32
  %58 = load ptr, ptr %57, align 8, !tbaa !50
  %59 = load i32, ptr %14, align 4, !tbaa !36
  %60 = sext i32 %59 to i64
  %61 = getelementptr inbounds ptr, ptr %58, i64 %60
  %62 = load ptr, ptr %61, align 8, !tbaa !128
  store ptr %62, ptr %15, align 8, !tbaa !128
  store i32 0, ptr %11, align 4, !tbaa !36
  br label %63

63:                                               ; preds = %99, %46
  %64 = load i32, ptr %11, align 4, !tbaa !36
  %65 = load i32, ptr %12, align 4, !tbaa !36
  %66 = icmp slt i32 %64, %65
  br i1 %66, label %67, label %102

67:                                               ; preds = %63
  %68 = load ptr, ptr %9, align 8, !tbaa !22
  %69 = getelementptr inbounds nuw %struct.ShowSpectrumContext, ptr %68, i32 0, i32 29
  %70 = load ptr, ptr %69, align 8, !tbaa !42
  %71 = load i32, ptr %14, align 4, !tbaa !36
  %72 = sext i32 %71 to i64
  %73 = getelementptr inbounds ptr, ptr %70, i64 %72
  %74 = load ptr, ptr %73, align 8, !tbaa !132
  %75 = load i32, ptr %11, align 4, !tbaa !36
  %76 = sext i32 %75 to i64
  %77 = getelementptr inbounds %struct.AVComplexFloat, ptr %74, i64 %76
  %78 = getelementptr inbounds nuw %struct.AVComplexFloat, ptr %77, i32 0, i32 0
  %79 = load float, ptr %78, align 4, !tbaa !222
  %80 = load ptr, ptr %9, align 8, !tbaa !22
  %81 = getelementptr inbounds nuw %struct.ShowSpectrumContext, ptr %80, i32 0, i32 29
  %82 = load ptr, ptr %81, align 8, !tbaa !42
  %83 = load i32, ptr %14, align 4, !tbaa !36
  %84 = sext i32 %83 to i64
  %85 = getelementptr inbounds ptr, ptr %82, i64 %84
  %86 = load ptr, ptr %85, align 8, !tbaa !132
  %87 = load i32, ptr %11, align 4, !tbaa !36
  %88 = sext i32 %87 to i64
  %89 = getelementptr inbounds %struct.AVComplexFloat, ptr %86, i64 %88
  %90 = getelementptr inbounds nuw %struct.AVComplexFloat, ptr %89, i32 0, i32 1
  %91 = load float, ptr %90, align 4, !tbaa !224
  %92 = call nsz float @hypotf(float noundef %79, float noundef %91) #14
  %93 = load float, ptr %13, align 4, !tbaa !126
  %94 = fmul nsz float %92, %93
  %95 = load ptr, ptr %15, align 8, !tbaa !128
  %96 = load i32, ptr %11, align 4, !tbaa !36
  %97 = sext i32 %96 to i64
  %98 = getelementptr inbounds float, ptr %95, i64 %97
  store float %94, ptr %98, align 4, !tbaa !126
  br label %99

99:                                               ; preds = %67
  %100 = load i32, ptr %11, align 4, !tbaa !36
  %101 = add nsw i32 %100, 1
  store i32 %101, ptr %11, align 4, !tbaa !36
  br label %63, !llvm.loop !239

102:                                              ; preds = %63
  call void @llvm.lifetime.end.p0(i64 8, ptr %15) #13
  call void @llvm.lifetime.end.p0(i64 4, ptr %14) #13
  call void @llvm.lifetime.end.p0(i64 4, ptr %13) #13
  call void @llvm.lifetime.end.p0(i64 4, ptr %12) #13
  call void @llvm.lifetime.end.p0(i64 4, ptr %11) #13
  call void @llvm.lifetime.end.p0(i64 8, ptr %10) #13
  call void @llvm.lifetime.end.p0(i64 8, ptr %9) #13
  ret i32 0
}