; Function Attrs: nofree norecurse nosync nounwind memory(readwrite, inaccessiblemem: none) uwtable
define internal noundef i32 @calc_channel_magnitudes(ptr noundef readonly captures(none) %0, ptr readnone captures(none) %1, i32 noundef %2, i32 %3) #12 {
  %5 = getelementptr inbounds nuw i8, ptr %0, i64 72
  %6 = load ptr, ptr %5, align 8, !tbaa !4
  %7 = getelementptr inbounds nuw i8, ptr %6, i64 224
  %8 = load double, ptr %7, align 8, !tbaa !127
  %9 = getelementptr inbounds nuw i8, ptr %6, i64 84
  %10 = load i32, ptr %9, align 4, !tbaa !196
  %11 = icmp eq i32 %10, 3
  %12 = select nsz i1 %11, double %8, double 1.000000e+00
  %13 = fmul nsz double %8, %12
  %14 = getelementptr inbounds nuw i8, ptr %6, i64 60
  %15 = load i32, ptr %14, align 4, !tbaa !73
  %16 = icmp eq i32 %15, 0
  %.in.v = select i1 %16, i64 12, i64 8
  %.in = getelementptr inbounds nuw i8, ptr %6, i64 %.in.v
  %17 = load i32, ptr %.in, align 4, !tbaa !81
  %18 = getelementptr inbounds nuw i8, ptr %6, i64 236
  %19 = load float, ptr %18, align 4, !tbaa !221
  %20 = fpext nsz float %19 to double
  %21 = fmul nsz double %13, %20
  %22 = fptrunc nsz double %21 to float
  %23 = getelementptr inbounds nuw i8, ptr %6, i64 192
  %24 = load ptr, ptr %23, align 8, !tbaa !45
  %25 = sext i32 %2 to i64
  %26 = getelementptr inbounds ptr, ptr %24, i64 %25
  %27 = load ptr, ptr %26, align 8, !tbaa !117
  %28 = icmp sgt i32 %17, 0
  br i1 %28, label %.lr.ph, label %._crit_edge

.lr.ph:                                           ; preds = %4
  %29 = getelementptr inbounds nuw i8, ptr %6, i64 168
  %30 = load ptr, ptr %29, align 8, !tbaa !37
  %31 = getelementptr inbounds ptr, ptr %30, i64 %25
  %32 = load ptr, ptr %31, align 8, !tbaa !121
  %wide.trip.count = zext nneg i32 %17 to i64
  br label %33

33:                                               ; preds = %.lr.ph, %33
  %indvars.iv = phi i64 [ 0, %.lr.ph ], [ %indvars.iv.next, %33 ]
  %34 = getelementptr inbounds nuw %struct.AVComplexFloat, ptr %32, i64 %indvars.iv
  %35 = load float, ptr %34, align 4, !tbaa !207
  %36 = getelementptr inbounds nuw i8, ptr %34, i64 4
  %37 = load float, ptr %36, align 4, !tbaa !209
  %38 = tail call nsz float @hypotf(float noundef %35, float noundef %37) #15
  %39 = fmul nsz float %38, %22
  %40 = getelementptr inbounds nuw float, ptr %27, i64 %indvars.iv
  store float %39, ptr %40, align 4, !tbaa !114
  %indvars.iv.next = add nuw nsw i64 %indvars.iv, 1
  %exitcond.not = icmp eq i64 %indvars.iv.next, %wide.trip.count
  br i1 %exitcond.not, label %._crit_edge, label %33, !llvm.loop !222

._crit_edge:                                      ; preds = %33, %4
  ret i32 0
}